target datalayout = "e-m:e-p270:32:32-p271:32:32-p272:64:64-i64:64-i128:128-f80:128-n8:16:32:64-S128"
target triple = "x86_64-pc-linux-gnu"

; Function Attrs: mustprogress uwtable
define dso_local noundef i32 @_ZN24cmCPackExternalGenerator19InstallCMakeProjectEbRKNSt7__cxx1112basic_stringIcSt11char_traitsIcESaIcEEES7_PKjS7_bS7_S7_RS5_(ptr noundef nonnull align 8 dereferenceable(368) %0, i1 noundef zeroext %1, ptr noundef nonnull align 8 dereferenceable(32) %2, ptr noundef nonnull align 8 dereferenceable(32) %3, ptr noundef %4, ptr noundef nonnull align 8 dereferenceable(32) %5, i1 noundef zeroext %6, ptr noundef nonnull align 8 dereferenceable(32) %7, ptr noundef nonnull align 8 dereferenceable(32) %8, ptr noundef nonnull align 8 dereferenceable(32) %9) unnamed_addr #4 align 2 {
  %11 = alloca i32, align 4
  %12 = alloca ptr, align 8
  %13 = alloca i8, align 1
  %14 = alloca ptr, align 8
  %15 = alloca ptr, align 8
  %16 = alloca ptr, align 8
  %17 = alloca ptr, align 8
  %18 = alloca i8, align 1
  %19 = alloca ptr, align 8
  %20 = alloca ptr, align 8
  %21 = alloca ptr, align 8
  store ptr %0, ptr %12, align 8
  %22 = zext i1 %1 to i8
  store i8 %22, ptr %13, align 1
  store ptr %2, ptr %14, align 8
  store ptr %3, ptr %15, align 8
  store ptr %4, ptr %16, align 8
  store ptr %5, ptr %17, align 8
  %23 = zext i1 %6 to i8
  store i8 %23, ptr %18, align 1
  store ptr %7, ptr %19, align 8
  store ptr %8, ptr %20, align 8
  store ptr %9, ptr %21, align 8
  %24 = load ptr, ptr %12, align 8
  %25 = call noundef zeroext i1 @_ZNK24cmCPackExternalGenerator14StagingEnabledEv(ptr noundef nonnull align 8 dereferenceable(368) %24)
  br i1 %25, label %26, label %39

26:                                               ; preds = %10
  %27 = load i8, ptr %13, align 1
  %28 = trunc i8 %27 to i1
  %29 = load ptr, ptr %14, align 8
  %30 = load ptr, ptr %15, align 8
  %31 = load ptr, ptr %16, align 8
  %32 = load ptr, ptr %17, align 8
  %33 = load i8, ptr %18, align 1
  %34 = trunc i8 %33 to i1
  %35 = load ptr, ptr %19, align 8
  %36 = load ptr, ptr %20, align 8
  %37 = load ptr, ptr %21, align 8
  %38 = call noundef i32 @_ZN16cmCPackGenerator19InstallCMakeProjectEbRKNSt7__cxx1112basic_stringIcSt11char_traitsIcESaIcEEES7_PKjS7_bS7_S7_RS5_(ptr noundef nonnull align 8 dereferenceable(360) %24, i1 noundef zeroext %28, ptr noundef nonnull align 8 dereferenceable(32) %29, ptr noundef nonnull align 8 dereferenceable(32) %30, ptr noundef %31, ptr noundef nonnull align 8 dereferenceable(32) %32, i1 noundef zeroext %34, ptr noundef nonnull align 8 dereferenceable(32) %35, ptr noundef nonnull align 8 dereferenceable(32) %36, ptr noundef nonnull align 8 dereferenceable(32) %37)
  store i32 %38, ptr %11, align 4
  br label %40

39:                                               ; preds = %10
  store i32 1, ptr %11, align 4
  br label %40

40:                                               ; preds = %39, %26
  %41 = load i32, ptr %11, align 4
  ret i32 %41
}