; Function Attrs: mustprogress uwtable
define dso_local noundef i32 @_ZN24cmCPackExternalGenerator19InstallCMakeProjectEbRKNSt7__cxx1112basic_stringIcSt11char_traitsIcESaIcEEES7_PKjS7_bS7_S7_RS5_(ptr noundef nonnull align 8 dereferenceable(368) %0, i1 noundef zeroext %1, ptr noundef nonnull align 8 dereferenceable(32) %2, ptr noundef nonnull align 8 dereferenceable(32) %3, ptr noundef %4, ptr noundef nonnull align 8 dereferenceable(32) %5, i1 noundef zeroext %6, ptr noundef nonnull align 8 dereferenceable(32) %7, ptr noundef nonnull align 8 dereferenceable(32) %8, ptr noundef nonnull align 8 dereferenceable(32) %9) unnamed_addr #3 align 2 {
  %11 = tail call noundef zeroext i1 @_ZNK24cmCPackExternalGenerator14StagingEnabledEv(ptr noundef nonnull align 8 dereferenceable(368) %0)
  br i1 %11, label %12, label %14

12:                                               ; preds = %10
  %13 = tail call noundef i32 @_ZN16cmCPackGenerator19InstallCMakeProjectEbRKNSt7__cxx1112basic_stringIcSt11char_traitsIcESaIcEEES7_PKjS7_bS7_S7_RS5_(ptr noundef nonnull align 8 dereferenceable(360) %0, i1 noundef zeroext %1, ptr noundef nonnull align 8 dereferenceable(32) %2, ptr noundef nonnull align 8 dereferenceable(32) %3, ptr noundef %4, ptr noundef nonnull align 8 dereferenceable(32) %5, i1 noundef zeroext %6, ptr noundef nonnull align 8 dereferenceable(32) %7, ptr noundef nonnull align 8 dereferenceable(32) %8, ptr noundef nonnull align 8 dereferenceable(32) %9)
  br label %14

14:                                               ; preds = %10, %12
  %.0 = phi i32 [ %13, %12 ], [ 1, %10 ]
  ret i32 %.0
}